; Function Attrs: nounwind uwtable
define internal void @uv__queue_done(ptr noundef %0, i32 noundef %1) #0 {
  %3 = getelementptr inbounds i8, ptr %0, i64 -24
  %4 = load ptr, ptr %3, align 8
  %5 = getelementptr inbounds nuw i8, ptr %4, i64 32
  %6 = load i32, ptr %5, align 8
  %7 = add i32 %6, -1
  store i32 %7, ptr %5, align 8
  %8 = getelementptr inbounds i8, ptr %0, i64 -8
  %9 = load ptr, ptr %8, align 8
  %10 = icmp eq ptr %9, null
  br i1 %10, label %13, label %11

11:                                               ; preds = %2
  %12 = getelementptr inbounds i8, ptr %0, i64 -88
  tail call void %9(ptr noundef nonnull %12, i32 noundef %1) #9
  br label %13

13:                                               ; preds = %2, %11
  ret void
}